target datalayout = "e-m:e-p270:32:32-p271:32:32-p272:64:64-i64:64-i128:128-f80:128-n8:16:32:64-S128"
target triple = "x86_64-pc-linux-gnu"

%class.Sample = type { ptr, ptr, ptr, ptr, ptr, i8, float, float, float, float, float, float, float, float, float, float, float, float, float, i32, i8, i8, i8, ptr, [9 x ptr], ptr, %class.SampleDebugDraw }
%class.SampleDebugDraw = type { %class.DebugDrawGL }
%class.DebugDrawGL = type { %struct.duDebugDraw }
%struct.duDebugDraw = type { ptr }
%class.InputGeom = type { ptr, ptr, [3 x float], [3 x float], %struct.BuildSettings, i8, [1536 x float], [256 x float], [256 x i8], [256 x i8], [256 x i16], [256 x i32], i32, [256 x %struct.ConvexVolume], i32 }
%struct.BuildSettings = type { float, float, float, float, float, float, float, float, float, float, float, float, float, i32, [3 x float], [3 x float], float }
%struct.ConvexVolume = type { [36 x float], float, float, i32, i32 }

; Function Attrs: mustprogress nounwind uwtable
define linkonce_odr dso_local noundef ptr @_ZNK9InputGeom16getBuildSettingsEv(ptr noundef nonnull align 8 dereferenceable(50312) %0) #0 comdat align 2 {
  %2 = alloca ptr, align 8
  store ptr %0, ptr %2, align 8
  %3 = load ptr, ptr %2, align 8
  %4 = getelementptr inbounds %class.InputGeom, ptr %3, i32 0, i32 5
  %5 = load i8, ptr %4, align 4
  %6 = trunc i8 %5 to i1
  br i1 %6, label %7, label %9

7:                                                ; preds = %1
  %8 = getelementptr inbounds %class.InputGeom, ptr %3, i32 0, i32 4
  br label %10

9:                                                ; preds = %1
  br label %10

10:                                               ; preds = %9, %7
  %11 = phi ptr [ %8, %7 ], [ null, %9 ]
  ret ptr %11
}

; Function Attrs: mustprogress uwtable
define dso_local void @_ZN6Sample17handleMeshChangedEP9InputGeom(ptr noundef nonnull align 8 dereferenceable(200) %0, ptr noundef %1) unnamed_addr #2 align 2 {
  %3 = alloca ptr, align 8
  %4 = alloca ptr, align 8
  %5 = alloca ptr, align 8
  store ptr %0, ptr %3, align 8
  store ptr %1, ptr %4, align 8
  %6 = load ptr, ptr %3, align 8
  %7 = load ptr, ptr %4, align 8
  %8 = getelementptr inbounds %class.Sample, ptr %6, i32 0, i32 1
  store ptr %7, ptr %8, align 8
  %9 = load ptr, ptr %4, align 8
  %10 = call noundef ptr @_ZNK9InputGeom16getBuildSettingsEv(ptr noundef nonnull align 8 dereferenceable(50312) %9)
  store ptr %10, ptr %5, align 8
  %11 = load ptr, ptr %5, align 8
  %12 = icmp ne ptr %11, null
  br i1 %12, label %13, label %70

13:                                               ; preds = %2
  %14 = load ptr, ptr %5, align 8
  %15 = getelementptr inbounds %struct.BuildSettings, ptr %14, i32 0, i32 0
  %16 = load float, ptr %15, align 4
  %17 = getelementptr inbounds %class.Sample, ptr %6, i32 0, i32 6
  store float %16, ptr %17, align 4
  %18 = load ptr, ptr %5, align 8
  %19 = getelementptr inbounds %struct.BuildSettings, ptr %18, i32 0, i32 1
  %20 = load float, ptr %19, align 4
  %21 = getelementptr inbounds %class.Sample, ptr %6, i32 0, i32 7
  store float %20, ptr %21, align 8
  %22 = load ptr, ptr %5, align 8
  %23 = getelementptr inbounds %struct.BuildSettings, ptr %22, i32 0, i32 2
  %24 = load float, ptr %23, align 4
  %25 = getelementptr inbounds %class.Sample, ptr %6, i32 0, i32 8
  store float %24, ptr %25, align 4
  %26 = load ptr, ptr %5, align 8
  %27 = getelementptr inbounds %struct.BuildSettings, ptr %26, i32 0, i32 3
  %28 = load float, ptr %27, align 4
  %29 = getelementptr inbounds %class.Sample, ptr %6, i32 0, i32 9
  store float %28, ptr %29, align 8
  %30 = load ptr, ptr %5, align 8
  %31 = getelementptr inbounds %struct.BuildSettings, ptr %30, i32 0, i32 4
  %32 = load float, ptr %31, align 4
  %33 = getelementptr inbounds %class.Sample, ptr %6, i32 0, i32 10
  store float %32, ptr %33, align 4
  %34 = load ptr, ptr %5, align 8
  %35 = getelementptr inbounds %struct.BuildSettings, ptr %34, i32 0, i32 5
  %36 = load float, ptr %35, align 4
  %37 = getelementptr inbounds %class.Sample, ptr %6, i32 0, i32 11
  store float %36, ptr %37, align 8
  %38 = load ptr, ptr %5, align 8
  %39 = getelementptr inbounds %struct.BuildSettings, ptr %38, i32 0, i32 6
  %40 = load float, ptr %39, align 4
  %41 = getelementptr inbounds %class.Sample, ptr %6, i32 0, i32 12
  store float %40, ptr %41, align 4
  %42 = load ptr, ptr %5, align 8
  %43 = getelementptr inbounds %struct.BuildSettings, ptr %42, i32 0, i32 7
  %44 = load float, ptr %43, align 4
  %45 = getelementptr inbounds %class.Sample, ptr %6, i32 0, i32 13
  store float %44, ptr %45, align 8
  %46 = load ptr, ptr %5, align 8
  %47 = getelementptr inbounds %struct.BuildSettings, ptr %46, i32 0, i32 8
  %48 = load float, ptr %47, align 4
  %49 = getelementptr inbounds %class.Sample, ptr %6, i32 0, i32 14
  store float %48, ptr %49, align 4
  %50 = load ptr, ptr %5, align 8
  %51 = getelementptr inbounds %struct.BuildSettings, ptr %50, i32 0, i32 9
  %52 = load float, ptr %51, align 4
  %53 = getelementptr inbounds %class.Sample, ptr %6, i32 0, i32 15
  store float %52, ptr %53, align 8
  %54 = load ptr, ptr %5, align 8
  %55 = getelementptr inbounds %struct.BuildSettings, ptr %54, i32 0, i32 10
  %56 = load float, ptr %55, align 4
  %57 = getelementptr inbounds %class.Sample, ptr %6, i32 0, i32 16
  store float %56, ptr %57, align 4
  %58 = load ptr, ptr %5, align 8
  %59 = getelementptr inbounds %struct.BuildSettings, ptr %58, i32 0, i32 11
  %60 = load float, ptr %59, align 4
  %61 = getelementptr inbounds %class.Sample, ptr %6, i32 0, i32 17
  store float %60, ptr %61, align 8
  %62 = load ptr, ptr %5, align 8
  %63 = getelementptr inbounds %struct.BuildSettings, ptr %62, i32 0, i32 12
  %64 = load float, ptr %63, align 4
  %65 = getelementptr inbounds %class.Sample, ptr %6, i32 0, i32 18
  store float %64, ptr %65, align 4
  %66 = load ptr, ptr %5, align 8
  %67 = getelementptr inbounds %struct.BuildSettings, ptr %66, i32 0, i32 13
  %68 = load i32, ptr %67, align 4
  %69 = getelementptr inbounds %class.Sample, ptr %6, i32 0, i32 19
  store i32 %68, ptr %69, align 8
  br label %70

70:                                               ; preds = %13, %2
  ret void
}