; Function Attrs: mustprogress nofree norecurse nosync nounwind willreturn memory(argmem: readwrite) uwtable
define dso_local void @_ZN6Sample17handleMeshChangedEP9InputGeom(ptr nocapture noundef nonnull writeonly align 8 dereferenceable(200) %0, ptr noundef %1) unnamed_addr #9 align 2 {
  %3 = getelementptr inbounds i8, ptr %0, i64 8
  store ptr %1, ptr %3, align 8
  %4 = getelementptr inbounds i8, ptr %1, i64 124
  %5 = load i8, ptr %4, align 4
  %6 = and i8 %5, 1
  %.not.i = icmp eq i8 %6, 0
  br i1 %.not.i, label %50, label %7

7:                                                ; preds = %2
  %8 = getelementptr inbounds i8, ptr %1, i64 40
  %9 = load float, ptr %8, align 4
  %10 = getelementptr inbounds i8, ptr %0, i64 44
  store float %9, ptr %10, align 4
  %11 = getelementptr inbounds i8, ptr %1, i64 44
  %12 = load float, ptr %11, align 4
  %13 = getelementptr inbounds i8, ptr %0, i64 48
  store float %12, ptr %13, align 8
  %14 = getelementptr inbounds i8, ptr %1, i64 48
  %15 = load float, ptr %14, align 4
  %16 = getelementptr inbounds i8, ptr %0, i64 52
  store float %15, ptr %16, align 4
  %17 = getelementptr inbounds i8, ptr %1, i64 52
  %18 = load float, ptr %17, align 4
  %19 = getelementptr inbounds i8, ptr %0, i64 56
  store float %18, ptr %19, align 8
  %20 = getelementptr inbounds i8, ptr %1, i64 56
  %21 = load float, ptr %20, align 4
  %22 = getelementptr inbounds i8, ptr %0, i64 60
  store float %21, ptr %22, align 4
  %23 = getelementptr inbounds i8, ptr %1, i64 60
  %24 = load float, ptr %23, align 4
  %25 = getelementptr inbounds i8, ptr %0, i64 64
  store float %24, ptr %25, align 8
  %26 = getelementptr inbounds i8, ptr %1, i64 64
  %27 = load float, ptr %26, align 4
  %28 = getelementptr inbounds i8, ptr %0, i64 68
  store float %27, ptr %28, align 4
  %29 = getelementptr inbounds i8, ptr %1, i64 68
  %30 = load float, ptr %29, align 4
  %31 = getelementptr inbounds i8, ptr %0, i64 72
  store float %30, ptr %31, align 8
  %32 = getelementptr inbounds i8, ptr %1, i64 72
  %33 = load float, ptr %32, align 4
  %34 = getelementptr inbounds i8, ptr %0, i64 76
  store float %33, ptr %34, align 4
  %35 = getelementptr inbounds i8, ptr %1, i64 76
  %36 = load float, ptr %35, align 4
  %37 = getelementptr inbounds i8, ptr %0, i64 80
  store float %36, ptr %37, align 8
  %38 = getelementptr inbounds i8, ptr %1, i64 80
  %39 = load float, ptr %38, align 4
  %40 = getelementptr inbounds i8, ptr %0, i64 84
  store float %39, ptr %40, align 4
  %41 = getelementptr inbounds i8, ptr %1, i64 84
  %42 = load float, ptr %41, align 4
  %43 = getelementptr inbounds i8, ptr %0, i64 88
  store float %42, ptr %43, align 8
  %44 = getelementptr inbounds i8, ptr %1, i64 88
  %45 = load float, ptr %44, align 4
  %46 = getelementptr inbounds i8, ptr %0, i64 92
  store float %45, ptr %46, align 4
  %47 = getelementptr inbounds i8, ptr %1, i64 92
  %48 = load i32, ptr %47, align 4
  %49 = getelementptr inbounds i8, ptr %0, i64 96
  store i32 %48, ptr %49, align 8
  br label %50

50:                                               ; preds = %7, %2
  ret void
}